; Function Attrs: mustprogress nounwind uwtable
define hidden void @_ZN14GenerateOopMap10pp_new_refEP13CellTypeStatei(ptr nocapture noundef nonnull align 8 dereferenceable(176) %0, ptr nocapture noundef readonly %1, i32 noundef %2) local_unnamed_addr #0 align 2 {
  %4 = load i32, ptr %1, align 4
  %5 = icmp eq i32 %4, 0
  br i1 %5, label %_ZN14GenerateOopMap4ppopEP13CellTypeState.exit, label %.lr.ph.i

.lr.ph.i:                                         ; preds = %3
  %6 = getelementptr inbounds i8, ptr %0, i64 88
  %7 = getelementptr inbounds i8, ptr %0, i64 72
  %8 = getelementptr inbounds i8, ptr %0, i64 32
  br label %9

9:                                                ; preds = %_ZN14GenerateOopMap5ppop1E13CellTypeState.exit.i, %.lr.ph.i
  %10 = phi i32 [ %4, %.lr.ph.i ], [ %25, %_ZN14GenerateOopMap5ppop1E13CellTypeState.exit.i ]
  %.03.i = phi ptr [ %1, %.lr.ph.i ], [ %11, %_ZN14GenerateOopMap5ppop1E13CellTypeState.exit.i ]
  %11 = getelementptr inbounds i8, ptr %.03.i, i64 4
  %12 = load i32, ptr %6, align 8
  %13 = icmp slt i32 %12, 1
  br i1 %13, label %14, label %15

14:                                               ; preds = %9
  tail call void (ptr, ptr, ...) @_ZN14GenerateOopMap12report_errorEPKcz(ptr noundef nonnull align 8 dereferenceable(176) %0, ptr noundef nonnull @.str.78)
  br label %_ZN14GenerateOopMap3popEv.exit.i.i

15:                                               ; preds = %9
  %16 = load ptr, ptr %7, align 8
  %17 = load i32, ptr %8, align 8
  %18 = sext i32 %17 to i64
  %19 = getelementptr inbounds %class.CellTypeState, ptr %16, i64 %18
  %20 = add nsw i32 %12, -1
  store i32 %20, ptr %6, align 8
  %21 = zext nneg i32 %20 to i64
  %22 = getelementptr inbounds %class.CellTypeState, ptr %19, i64 %21
  br label %_ZN14GenerateOopMap3popEv.exit.i.i

_ZN14GenerateOopMap3popEv.exit.i.i:               ; preds = %15, %14
  %.sroa.0.0.in.i.i.i = phi ptr [ @_ZL6valCTS, %14 ], [ %22, %15 ]
  %.sroa.0.0.i.i.i = load i32, ptr %.sroa.0.0.in.i.i.i, align 4
  %23 = xor i32 %.sroa.0.0.i.i.i, %10
  %24 = icmp ult i32 %23, 268435456
  br i1 %24, label %_ZN14GenerateOopMap5ppop1E13CellTypeState.exit.i, label %_ZNK13CellTypeState7to_charEv.exit.i.i.i

_ZNK13CellTypeState7to_charEv.exit.i.i.i:         ; preds = %_ZN14GenerateOopMap3popEv.exit.i.i
  tail call void (ptr, ptr, ...) @_ZN14GenerateOopMap12report_errorEPKcz(ptr noundef nonnull align 8 dereferenceable(176) %0, ptr noundef nonnull @.str.78)
  br label %_ZN14GenerateOopMap5ppop1E13CellTypeState.exit.i

_ZN14GenerateOopMap5ppop1E13CellTypeState.exit.i: ; preds = %_ZNK13CellTypeState7to_charEv.exit.i.i.i, %_ZN14GenerateOopMap3popEv.exit.i.i
  %25 = load i32, ptr %11, align 4
  %26 = icmp eq i32 %25, 0
  br i1 %26, label %_ZN14GenerateOopMap4ppopEP13CellTypeState.exit, label %9, !llvm.loop !36

_ZN14GenerateOopMap4ppopEP13CellTypeState.exit:   ; preds = %_ZN14GenerateOopMap5ppop1E13CellTypeState.exit.i, %3
  %27 = getelementptr inbounds i8, ptr %0, i64 88
  %28 = load i32, ptr %27, align 8
  %29 = getelementptr inbounds i8, ptr %0, i64 36
  %30 = load i32, ptr %29, align 4
  %.not.i.i = icmp slt i32 %28, %30
  br i1 %.not.i.i, label %32, label %31

31:                                               ; preds = %_ZN14GenerateOopMap4ppopEP13CellTypeState.exit
  tail call void (ptr, ptr, ...) @_ZN14GenerateOopMap12report_errorEPKcz(ptr noundef nonnull align 8 dereferenceable(176) %0, ptr noundef nonnull @.str.78)
  br label %_ZN14GenerateOopMap6ppush1E13CellTypeState.exit

32:                                               ; preds = %_ZN14GenerateOopMap4ppopEP13CellTypeState.exit
  %33 = and i32 %2, 16777215
  %34 = or disjoint i32 %33, 1174405120
  %35 = getelementptr inbounds i8, ptr %0, i64 72
  %36 = load ptr, ptr %35, align 8
  %37 = getelementptr inbounds i8, ptr %0, i64 32
  %38 = load i32, ptr %37, align 8
  %39 = sext i32 %38 to i64
  %40 = getelementptr inbounds %class.CellTypeState, ptr %36, i64 %39
  %41 = add nsw i32 %28, 1
  store i32 %41, ptr %27, align 8
  %42 = sext i32 %28 to i64
  %43 = getelementptr inbounds %class.CellTypeState, ptr %40, i64 %42
  store i32 %34, ptr %43, align 4
  br label %_ZN14GenerateOopMap6ppush1E13CellTypeState.exit

_ZN14GenerateOopMap6ppush1E13CellTypeState.exit:  ; preds = %31, %32
  ret void
}